target datalayout = "e-m:e-p270:32:32-p271:32:32-p272:64:64-i64:64-i128:128-f80:128-n8:16:32:64-S128"
target triple = "x86_64-unknown-linux-gnu"

%"struct.std::_Rb_tree_header" = type { %"struct.std::_Rb_tree_node_base", i64 }
%"struct.std::_Rb_tree_node_base" = type { i32, ptr, ptr, ptr }
%"class.grpc_core::RefCount" = type { %"struct.std::atomic.108" }
%"struct.std::atomic.108" = type { %"struct.std::__atomic_base.109" }
%"struct.std::__atomic_base.109" = type { i64 }
%"class.grpc_core::RefCountedPtr" = type { ptr }
%"class.std::shared_ptr" = type { %"class.std::__shared_ptr" }
%"class.std::__shared_ptr" = type { ptr, %"class.std::__shared_count" }
%"class.std::__shared_count" = type { ptr }
%"class.std::unique_ptr.119" = type { %"struct.std::__uniq_ptr_data.120" }
%"struct.std::__uniq_ptr_data.120" = type { %"class.std::__uniq_ptr_impl.121" }
%"class.std::__uniq_ptr_impl.121" = type { %"class.std::tuple.122" }
%"class.std::tuple.122" = type { %"struct.std::_Tuple_impl.123" }
%"struct.std::_Tuple_impl.123" = type { %"struct.std::_Head_base.126" }
%"struct.std::_Head_base.126" = type { ptr }
%"class.grpc_core::ChannelArgs" = type { %"class.grpc_core::AVL" }
%"class.grpc_core::AVL" = type { %"class.grpc_core::RefCountedPtr.127" }
%"class.grpc_core::RefCountedPtr.127" = type { ptr }
%"class.grpc_core::LoadBalancingPolicy" = type { %"class.grpc_core::InternallyRefCounted", %"class.std::shared_ptr", ptr, %"class.std::unique_ptr.119", %"class.grpc_core::ChannelArgs" }
%"class.grpc_core::InternallyRefCounted" = type { %"class.grpc_core::Orphanable", %"class.grpc_core::RefCount" }
%"class.grpc_core::Orphanable" = type { ptr }
%"class.absl::lts_20230802::Mutex" = type { %"struct.std::atomic.108" }
%"class.absl::lts_20230802::random_internal::NonsecureURBGBase" = type { %"class.absl::lts_20230802::random_internal::randen_engine" }
%"class.absl::lts_20230802::random_internal::randen_engine" = type { [264 x i8], i64, %"class.absl::lts_20230802::random_internal::Randen" }
%"class.absl::lts_20230802::random_internal::Randen" = type <{ ptr, i8, [7 x i8] }>
%"struct.std::atomic.151" = type { %"struct.std::__atomic_base.152" }
%"struct.std::__atomic_base.152" = type { i32 }
%"class.grpc_core::(anonymous namespace)::WeightedRoundRobin" = type <{ %"class.grpc_core::LoadBalancingPolicy", %"class.grpc_core::RefCountedPtr", %"class.std::unique_ptr.429", %"class.std::unique_ptr.429", %"class.absl::lts_20230802::Mutex", %"class.std::map.435", i8, [7 x i8], %"class.absl::lts_20230802::random_internal::NonsecureURBGBase", %"struct.std::atomic.151", [4 x i8] }>
%"class.std::unique_ptr.429" = type { %"struct.std::__uniq_ptr_data.430" }
%"struct.std::__uniq_ptr_data.430" = type { %"class.std::__uniq_ptr_impl.431" }
%"class.std::__uniq_ptr_impl.431" = type { %"class.std::tuple.432" }
%"class.std::tuple.432" = type { %"struct.std::_Tuple_impl.433" }
%"struct.std::_Tuple_impl.433" = type { %"struct.std::_Head_base.434" }
%"struct.std::_Head_base.434" = type { ptr }
%"class.std::map.435" = type { %"class.std::_Rb_tree.436" }
%"class.std::_Rb_tree.436" = type { %"struct.std::_Rb_tree<grpc_core::EndpointAddressSet, std::pair<const grpc_core::EndpointAddressSet, grpc_core::(anonymous namespace)::WeightedRoundRobin::EndpointWeight *>, std::_Select1st<std::pair<const grpc_core::EndpointAddressSet, grpc_core::(anonymous namespace)::WeightedRoundRobin::EndpointWeight *>>, std::less<grpc_core::EndpointAddressSet>>::_Rb_tree_impl" }
%"struct.std::_Rb_tree<grpc_core::EndpointAddressSet, std::pair<const grpc_core::EndpointAddressSet, grpc_core::(anonymous namespace)::WeightedRoundRobin::EndpointWeight *>, std::_Select1st<std::pair<const grpc_core::EndpointAddressSet, grpc_core::(anonymous namespace)::WeightedRoundRobin::EndpointWeight *>>, std::less<grpc_core::EndpointAddressSet>>::_Rb_tree_impl" = type { %"struct.std::_Rb_tree_key_compare.440", %"struct.std::_Rb_tree_header" }
%"struct.std::_Rb_tree_key_compare.440" = type { %"struct.std::less.441" }
%"struct.std::less.441" = type { i8 }

; Function Attrs: mustprogress nounwind uwtable
define internal noundef nonnull align 8 dereferenceable(8) ptr @_ZNSt10_Head_baseILm0EPN9grpc_core12_GLOBAL__N_118WeightedRoundRobin15WrrEndpointListELb0EE7_M_headERKS5_(ptr noundef nonnull align 8 dereferenceable(8) %__b) #5 align 2 {
entry:
  %__b.addr = alloca ptr, align 8
  store ptr %__b, ptr %__b.addr, align 8
  %0 = load ptr, ptr %__b.addr, align 8
  %_M_head_impl = getelementptr inbounds %"struct.std::_Head_base.434", ptr %0, i32 0, i32 0
  ret ptr %_M_head_impl
}

; Function Attrs: mustprogress nounwind uwtable
define internal noundef nonnull align 8 dereferenceable(8) ptr @_ZNSt11_Tuple_implILm0EJPN9grpc_core12_GLOBAL__N_118WeightedRoundRobin15WrrEndpointListENS0_16OrphanableDeleteEEE7_M_headERKS6_(ptr noundef nonnull align 8 dereferenceable(8) %__t) #5 align 2 {
entry:
  %__t.addr = alloca ptr, align 8
  store ptr %__t, ptr %__t.addr, align 8
  %0 = load ptr, ptr %__t.addr, align 8
  %call = call noundef nonnull align 8 dereferenceable(8) ptr @_ZNSt10_Head_baseILm0EPN9grpc_core12_GLOBAL__N_118WeightedRoundRobin15WrrEndpointListELb0EE7_M_headERKS5_(ptr noundef nonnull align 8 dereferenceable(8) %0) #3
  ret ptr %call
}

; Function Attrs: mustprogress nounwind uwtable
define internal noundef nonnull align 8 dereferenceable(8) ptr @_ZSt12__get_helperILm0EPN9grpc_core12_GLOBAL__N_118WeightedRoundRobin15WrrEndpointListEJNS0_16OrphanableDeleteEEERKT0_RKSt11_Tuple_implIXT_EJS6_DpT1_EE(ptr noundef nonnull align 8 dereferenceable(8) %__t) #5 {
entry:
  %__t.addr = alloca ptr, align 8
  store ptr %__t, ptr %__t.addr, align 8
  %0 = load ptr, ptr %__t.addr, align 8
  %call = call noundef nonnull align 8 dereferenceable(8) ptr @_ZNSt11_Tuple_implILm0EJPN9grpc_core12_GLOBAL__N_118WeightedRoundRobin15WrrEndpointListENS0_16OrphanableDeleteEEE7_M_headERKS6_(ptr noundef nonnull align 8 dereferenceable(8) %0) #3
  ret ptr %call
}

; Function Attrs: mustprogress nounwind uwtable
define internal noundef nonnull align 8 dereferenceable(8) ptr @_ZSt3getILm0EJPN9grpc_core12_GLOBAL__N_118WeightedRoundRobin15WrrEndpointListENS0_16OrphanableDeleteEEERKNSt13tuple_elementIXT_ESt5tupleIJDpT0_EEE4typeERKSA_(ptr noundef nonnull align 8 dereferenceable(8) %__t) #5 {
entry:
  %__t.addr = alloca ptr, align 8
  store ptr %__t, ptr %__t.addr, align 8
  %0 = load ptr, ptr %__t.addr, align 8
  %call = call noundef nonnull align 8 dereferenceable(8) ptr @_ZSt12__get_helperILm0EPN9grpc_core12_GLOBAL__N_118WeightedRoundRobin15WrrEndpointListEJNS0_16OrphanableDeleteEEERKT0_RKSt11_Tuple_implIXT_EJS6_DpT1_EE(ptr noundef nonnull align 8 dereferenceable(8) %0) #3
  ret ptr %call
}

; Function Attrs: mustprogress nounwind uwtable
define internal noundef ptr @_ZNKSt15__uniq_ptr_implIN9grpc_core12_GLOBAL__N_118WeightedRoundRobin15WrrEndpointListENS0_16OrphanableDeleteEE6_M_ptrEv(ptr noundef nonnull align 8 dereferenceable(8) %this) #5 align 2 {
entry:
  %this.addr = alloca ptr, align 8
  store ptr %this, ptr %this.addr, align 8
  %this1 = load ptr, ptr %this.addr, align 8
  %_M_t = getelementptr inbounds %"class.std::__uniq_ptr_impl.431", ptr %this1, i32 0, i32 0
  %call = call noundef nonnull align 8 dereferenceable(8) ptr @_ZSt3getILm0EJPN9grpc_core12_GLOBAL__N_118WeightedRoundRobin15WrrEndpointListENS0_16OrphanableDeleteEEERKNSt13tuple_elementIXT_ESt5tupleIJDpT0_EEE4typeERKSA_(ptr noundef nonnull align 8 dereferenceable(8) %_M_t) #3
  %0 = load ptr, ptr %call, align 8
  ret ptr %0
}

; Function Attrs: mustprogress nounwind uwtable
define internal noundef zeroext i1 @_ZNKSt10unique_ptrIN9grpc_core12_GLOBAL__N_118WeightedRoundRobin15WrrEndpointListENS0_16OrphanableDeleteEEcvbEv(ptr noundef nonnull align 8 dereferenceable(8) %this) #5 align 2 {
entry:
  %this.addr = alloca ptr, align 8
  store ptr %this, ptr %this.addr, align 8
  %this1 = load ptr, ptr %this.addr, align 8
  %call = call noundef ptr @_ZNKSt10unique_ptrIN9grpc_core12_GLOBAL__N_118WeightedRoundRobin15WrrEndpointListENS0_16OrphanableDeleteEE3getEv(ptr noundef nonnull align 8 dereferenceable(8) %this1) #3
  %cmp = icmp eq ptr %call, null
  %cond = select i1 %cmp, i1 false, i1 true
  ret i1 %cond
}

; Function Attrs: mustprogress nounwind uwtable
define internal noundef ptr @_ZNKSt10unique_ptrIN9grpc_core12_GLOBAL__N_118WeightedRoundRobin15WrrEndpointListENS0_16OrphanableDeleteEE3getEv(ptr noundef nonnull align 8 dereferenceable(8) %this) #5 align 2 {
entry:
  %this.addr = alloca ptr, align 8
  store ptr %this, ptr %this.addr, align 8
  %this1 = load ptr, ptr %this.addr, align 8
  %_M_t = getelementptr inbounds %"class.std::unique_ptr.429", ptr %this1, i32 0, i32 0
  %call = call noundef ptr @_ZNKSt15__uniq_ptr_implIN9grpc_core12_GLOBAL__N_118WeightedRoundRobin15WrrEndpointListENS0_16OrphanableDeleteEE6_M_ptrEv(ptr noundef nonnull align 8 dereferenceable(8) %_M_t) #3
  ret ptr %call
}

; Function Attrs: mustprogress nounwind uwtable
define internal noundef zeroext i1 @_ZStneIN9grpc_core12_GLOBAL__N_118WeightedRoundRobin15WrrEndpointListENS0_16OrphanableDeleteEEbRKSt10unique_ptrIT_T0_EDn(ptr noundef nonnull align 8 dereferenceable(8) %__x, ptr %0) #5 {
entry:
  %__x.addr = alloca ptr, align 8
  %.addr = alloca ptr, align 8
  store ptr %__x, ptr %__x.addr, align 8
  store ptr %0, ptr %.addr, align 8
  %1 = load ptr, ptr %__x.addr, align 8
  %call = call noundef zeroext i1 @_ZNKSt10unique_ptrIN9grpc_core12_GLOBAL__N_118WeightedRoundRobin15WrrEndpointListENS0_16OrphanableDeleteEEcvbEv(ptr noundef nonnull align 8 dereferenceable(8) %1) #3
  ret i1 %call
}

; Function Attrs: mustprogress nounwind uwtable
define internal noundef ptr @_ZNKSt10unique_ptrIN9grpc_core12_GLOBAL__N_118WeightedRoundRobin15WrrEndpointListENS0_16OrphanableDeleteEEptEv(ptr noundef nonnull align 8 dereferenceable(8) %this) #5 align 2 {
entry:
  %this.addr = alloca ptr, align 8
  store ptr %this, ptr %this.addr, align 8
  %this1 = load ptr, ptr %this.addr, align 8
  %call = call noundef ptr @_ZNKSt10unique_ptrIN9grpc_core12_GLOBAL__N_118WeightedRoundRobin15WrrEndpointListENS0_16OrphanableDeleteEE3getEv(ptr noundef nonnull align 8 dereferenceable(8) %this1) #3
  ret ptr %call
}

; Function Attrs: mustprogress uwtable
define internal void @_ZN9grpc_core12_GLOBAL__N_118WeightedRoundRobin18ResetBackoffLockedEv(ptr noundef nonnull align 8 dereferenceable(436) %this) unnamed_addr #4 align 2 {
entry:
  %this.addr = alloca ptr, align 8
  store ptr %this, ptr %this.addr, align 8
  %this1 = load ptr, ptr %this.addr, align 8
  %endpoint_list_ = getelementptr inbounds %"class.grpc_core::(anonymous namespace)::WeightedRoundRobin", ptr %this1, i32 0, i32 2
  %call = call noundef ptr @_ZNKSt10unique_ptrIN9grpc_core12_GLOBAL__N_118WeightedRoundRobin15WrrEndpointListENS0_16OrphanableDeleteEEptEv(ptr noundef nonnull align 8 dereferenceable(8) %endpoint_list_) #3
  call void @_ZN9grpc_core12EndpointList18ResetBackoffLockedEv(ptr noundef nonnull align 8 dereferenceable(56) %call)
  %latest_pending_endpoint_list_ = getelementptr inbounds %"class.grpc_core::(anonymous namespace)::WeightedRoundRobin", ptr %this1, i32 0, i32 3
  %call2 = call noundef zeroext i1 @_ZStneIN9grpc_core12_GLOBAL__N_118WeightedRoundRobin15WrrEndpointListENS0_16OrphanableDeleteEEbRKSt10unique_ptrIT_T0_EDn(ptr noundef nonnull align 8 dereferenceable(8) %latest_pending_endpoint_list_, ptr null) #3
  br i1 %call2, label %if.then, label %if.end

if.then:                                          ; preds = %entry
  %latest_pending_endpoint_list_3 = getelementptr inbounds %"class.grpc_core::(anonymous namespace)::WeightedRoundRobin", ptr %this1, i32 0, i32 3
  %call4 = call noundef ptr @_ZNKSt10unique_ptrIN9grpc_core12_GLOBAL__N_118WeightedRoundRobin15WrrEndpointListENS0_16OrphanableDeleteEEptEv(ptr noundef nonnull align 8 dereferenceable(8) %latest_pending_endpoint_list_3) #3
  call void @_ZN9grpc_core12EndpointList18ResetBackoffLockedEv(ptr noundef nonnull align 8 dereferenceable(56) %call4)
  br label %if.end

if.end:                                           ; preds = %if.then, %entry
  ret void
}