; Function Attrs: mustprogress uwtable
define internal void @_ZN9grpc_core12_GLOBAL__N_118WeightedRoundRobin18ResetBackoffLockedEv(ptr nocapture noundef nonnull readonly align 8 dereferenceable(436) %this) unnamed_addr #3 align 2 {
entry:
  %endpoint_list_ = getelementptr inbounds i8, ptr %this, i64 64
  %endpoint_list_.val = load ptr, ptr %endpoint_list_, align 8
  tail call void @_ZN9grpc_core12EndpointList18ResetBackoffLockedEv(ptr noundef nonnull align 8 dereferenceable(56) %endpoint_list_.val)
  %latest_pending_endpoint_list_ = getelementptr inbounds i8, ptr %this, i64 72
  %latest_pending_endpoint_list_.val1 = load ptr, ptr %latest_pending_endpoint_list_, align 8
  %cmp.i.i.not = icmp eq ptr %latest_pending_endpoint_list_.val1, null
  br i1 %cmp.i.i.not, label %if.end, label %if.then

if.then:                                          ; preds = %entry
  tail call void @_ZN9grpc_core12EndpointList18ResetBackoffLockedEv(ptr noundef nonnull align 8 dereferenceable(56) %latest_pending_endpoint_list_.val1)
  br label %if.end

if.end:                                           ; preds = %if.then, %entry
  ret void
}